(lp0
(lp1
(dp2
S'theta_E'
p3
F1.703047107302041
sS'center_x'
p4
F-0.0020930032635308885
sS'center_y'
p5
F-0.09028484034680456
sS'e1'
p6
F0.018362267595590853
sS'gamma'
p7
F1.95
sS'e2'
p8
F-0.13698938942375932
sa(dp9
g4
F0.6624533958747685
sg5
F1.0551098996703356
sg3
F0.15074204666951352
sa(dp10
S'dec_0'
p11
I0
sS'ra_0'
p12
I0
sg6
F-0.10124706304338868
sg8
F-0.006830366611182274
saa(lp13
(dp14
S'R_sersic'
p15
F0.015880025213981203
sS'n_sersic'
p16
I4
sg4
F0.5006480320315073
sg5
F-0.09296818928257655
sS'amp'
p17
I1
sg6
F0.162966315031916
sg8
F0.4820963274975332
sa(dp18
g15
F0.8219154038670891
sg16
I1
sg4
F0.5006480320315073
sg5
F-0.09296818928257655
sg17
I1
sg6
F0.20316875374245852
sg8
F-0.23874883440612904
saa(lp19
(dp20
g15
F1.5538089469852707
sg16
F4.2547680055199235
sg4
F0.007906863450243728
sg5
F-0.020394122246180247
sg17
I1
sg6
F-0.011260147527026164
sg8
F-0.05217665279764465
sa(dp21
g15
F0.3829141882425214
sg16
I1
sg4
F-0.055879909251532994
sg5
F1.3014704935439354
sg17
I1
sg6
F0.13674199082893898
sg8
F0.07425728596281388
saa(lp22
(dp23
S'point_amp'
p24
I1
sS'ra_image'
p25
cnumpy.core.multiarray
_reconstruct
p26
(cnumpy
ndarray
p27
(I0
tp28
S'b'
p29
tp30
Rp31
(I1
(I4
tp32
cnumpy
dtype
p33
(S'f8'
p34
I0
I1
tp35
Rp36
(I3
S'<'
p37
NNNI-1
I-1
I0
tp38
bI00
S'\xd5\xdf}\x1b\x832\x00@\xcd7\x89\xde5Z\x00@\x93\x02\xeaQ\xe1\xfd\xf6?iVt\xf3\xa6\x85\xf1\xbf'
p39
tp40
bsS'dec_image'
p41
g26
(g27
(I0
tp42
g29
tp43
Rp44
(I1
(I4
tp45
g36
I00
S'<\xcb\xe2\xb4\x96\xf8\xe3\xbf\x8c\xda\x9a\x00\x05\x0f\xe0?\xa7\n\xe3\xfa\xb9\xc9\xfb\xbf\x14\xbd\x84\xf1p\x8e\xba?'
p46
tp47
bsaa.